target datalayout = "e-m:e-p270:32:32-p271:32:32-p272:64:64-i64:64-i128:128-f80:128-n8:16:32:64-S128"
target triple = "x86_64-pc-linux-gnu"

; Function Attrs: nounwind uwtable
define void @evutil_rtrim_lws_(ptr noundef %0) #0 {
  %2 = alloca ptr, align 8
  %3 = alloca ptr, align 8
  %4 = alloca i32, align 4
  store ptr %0, ptr %2, align 8
  call void @llvm.lifetime.start.p0(i64 8, ptr %3) #11
  %5 = load ptr, ptr %2, align 8
  %6 = icmp eq ptr %5, null
  br i1 %6, label %7, label %8

7:                                                ; preds = %1
  store i32 1, ptr %4, align 4
  br label %42

8:                                                ; preds = %1
  %9 = load ptr, ptr %2, align 8
  %10 = call ptr @strchr(ptr noundef %9, i32 noundef 0) #13
  store ptr %10, ptr %3, align 8
  %11 = icmp eq ptr %10, null
  br i1 %11, label %16, label %12

12:                                               ; preds = %8
  %13 = load ptr, ptr %3, align 8
  %14 = load ptr, ptr %2, align 8
  %15 = icmp eq ptr %13, %14
  br i1 %15, label %16, label %17

16:                                               ; preds = %12, %8
  store i32 1, ptr %4, align 4
  br label %42

17:                                               ; preds = %12
  %18 = load ptr, ptr %3, align 8
  %19 = getelementptr inbounds i8, ptr %18, i32 -1
  store ptr %19, ptr %3, align 8
  br label %20

20:                                               ; preds = %38, %17
  %21 = load ptr, ptr %3, align 8
  %22 = load i8, ptr %21, align 1
  %23 = sext i8 %22 to i32
  %24 = icmp eq i32 %23, 32
  br i1 %24, label %30, label %25

25:                                               ; preds = %20
  %26 = load ptr, ptr %3, align 8
  %27 = load i8, ptr %26, align 1
  %28 = sext i8 %27 to i32
  %29 = icmp eq i32 %28, 9
  br label %30

30:                                               ; preds = %25, %20
  %31 = phi i1 [ true, %20 ], [ %29, %25 ]
  br i1 %31, label %32, label %41

32:                                               ; preds = %30
  %33 = load ptr, ptr %3, align 8
  store i8 0, ptr %33, align 1
  %34 = load ptr, ptr %3, align 8
  %35 = load ptr, ptr %2, align 8
  %36 = icmp eq ptr %34, %35
  br i1 %36, label %37, label %38

37:                                               ; preds = %32
  br label %41

38:                                               ; preds = %32
  %39 = load ptr, ptr %3, align 8
  %40 = getelementptr inbounds i8, ptr %39, i32 -1
  store ptr %40, ptr %3, align 8
  br label %20, !llvm.loop !21

41:                                               ; preds = %37, %30
  store i32 0, ptr %4, align 4
  br label %42

42:                                               ; preds = %41, %16, %7
  call void @llvm.lifetime.end.p0(i64 8, ptr %3) #11
  %43 = load i32, ptr %4, align 4
  switch i32 %43, label %45 [
    i32 0, label %44
    i32 1, label %44
  ]

44:                                               ; preds = %42, %42
  ret void

45:                                               ; preds = %42
  unreachable
}