; Function Attrs: nofree nounwind memory(argmem: readwrite) uwtable
define void @evutil_rtrim_lws_(ptr noundef captures(address) %0) local_unnamed_addr #23 {
  %2 = icmp eq ptr %0, null
  br i1 %2, label %.loopexit, label %3

3:                                                ; preds = %1
  %strlen = tail call i64 @strlen(ptr nonnull dereferenceable(1) %0)
  %4 = icmp eq i64 %strlen, 0
  br i1 %4, label %.loopexit, label %.preheader.preheader

.preheader.preheader:                             ; preds = %3
  %strchr = getelementptr inbounds i8, ptr %0, i64 %strlen
  br label %.preheader

.preheader:                                       ; preds = %.preheader.preheader, %.critedge
  %strchr.pn = phi ptr [ %.0, %.critedge ], [ %strchr, %.preheader.preheader ]
  %.0 = getelementptr inbounds i8, ptr %strchr.pn, i64 -1
  %5 = load i8, ptr %.0, align 1
  switch i8 %5, label %.loopexit [
    i8 32, label %.critedge
    i8 9, label %.critedge
  ]

.critedge:                                        ; preds = %.preheader, %.preheader
  store i8 0, ptr %.0, align 1
  %6 = icmp eq ptr %.0, %0
  br i1 %6, label %.loopexit, label %.preheader, !llvm.loop !22

.loopexit:                                        ; preds = %.critedge, %.preheader, %3, %1
  ret void
}